; Function Attrs: mustprogress nounwind uwtable
define void @_ZN6gmxapi7SessionC2ESt10unique_ptrINS_11SessionImplESt14default_deleteIS2_EE(ptr noundef nonnull align 8 captures(none) dereferenceable(8) initializes((0, 8)) %0, ptr noundef captures(none) %1) unnamed_addr #4 align 2 personality ptr @__gxx_personality_v0 {
  store ptr null, ptr %0, align 8, !tbaa !130
  %3 = load ptr, ptr %1, align 8, !tbaa !61
  %.not = icmp eq ptr %3, null
  br i1 %.not, label %_ZNSt10unique_ptrIN6gmxapi11SessionImplESt14default_deleteIS1_EEaSEOS4_.exit, label %4

4:                                                ; preds = %2
  store ptr null, ptr %1, align 8, !tbaa !61
  %5 = load ptr, ptr %0, align 8, !tbaa !61
  store ptr %3, ptr %0, align 8, !tbaa !61
  %.not.i.i.i.i = icmp eq ptr %5, null
  br i1 %.not.i.i.i.i, label %_ZNSt10unique_ptrIN6gmxapi11SessionImplESt14default_deleteIS1_EEaSEOS4_.exit, label %_ZNKSt14default_deleteIN6gmxapi11SessionImplEEclEPS1_.exit.i.i.i.i

_ZNKSt14default_deleteIN6gmxapi11SessionImplEEclEPS1_.exit.i.i.i.i: ; preds = %4
  tail call void @_ZN6gmxapi11SessionImplD1Ev(ptr noundef nonnull align 8 dereferenceable(160) %5) #26
  tail call void @_ZdlPvm(ptr noundef nonnull %5, i64 noundef 160) #28
  br label %_ZNSt10unique_ptrIN6gmxapi11SessionImplESt14default_deleteIS1_EEaSEOS4_.exit

_ZNSt10unique_ptrIN6gmxapi11SessionImplESt14default_deleteIS1_EEaSEOS4_.exit: ; preds = %_ZNKSt14default_deleteIN6gmxapi11SessionImplEEclEPS1_.exit.i.i.i.i, %4, %2
  ret void
}